target datalayout = "e-m:e-p270:32:32-p271:32:32-p272:64:64-i64:64-i128:128-f80:128-n8:16:32:64-S128"
target triple = "x86_64-pc-linux-gnu"

%class.arith_util = type { ptr, ptr }

; Function Attrs: mustprogress uwtable
define linkonce_odr hidden noundef ptr @_ZN10arith_util7mk_realEv(ptr noundef nonnull align 8 dereferenceable(16) %0) #4 comdat align 2 {
  %2 = alloca ptr, align 8
  store ptr %0, ptr %2, align 8, !tbaa !222
  %3 = load ptr, ptr %2, align 8
  %4 = getelementptr inbounds nuw %class.arith_util, ptr %3, i32 0, i32 0
  %5 = load ptr, ptr %4, align 8, !tbaa !240
  %6 = call noundef ptr @_ZN11ast_manager7mk_sortEiijPK9parameter(ptr noundef nonnull align 8 dereferenceable(976) %5, i32 noundef 5, i32 noundef 0, i32 noundef 0, ptr noundef null)
  ret ptr %6
}

; Function Attrs: mustprogress uwtable
define hidden noundef ptr @_ZN10arith_util10mk_rpower0Ev(ptr noundef nonnull align 8 dereferenceable(16) %0) #4 align 2 {
  %2 = alloca ptr, align 8
  %3 = alloca ptr, align 8
  %4 = alloca [2 x ptr], align 16
  store ptr %0, ptr %2, align 8, !tbaa !222
  %5 = load ptr, ptr %2, align 8
  call void @llvm.lifetime.start.p0(i64 8, ptr %3) #3
  %6 = call noundef ptr @_ZN10arith_util7mk_realEv(ptr noundef nonnull align 8 dereferenceable(16) %5)
  store ptr %6, ptr %3, align 8, !tbaa !51
  call void @llvm.lifetime.start.p0(i64 16, ptr %4) #3
  %7 = load ptr, ptr %3, align 8, !tbaa !51
  store ptr %7, ptr %4, align 8, !tbaa !51
  %8 = getelementptr inbounds ptr, ptr %4, i64 1
  %9 = load ptr, ptr %3, align 8, !tbaa !51
  store ptr %9, ptr %8, align 8, !tbaa !51
  %10 = getelementptr inbounds nuw %class.arith_util, ptr %5, i32 0, i32 0
  %11 = load ptr, ptr %10, align 8, !tbaa !240
  %12 = getelementptr inbounds [2 x ptr], ptr %4, i64 0, i64 0
  %13 = load ptr, ptr %3, align 8, !tbaa !51
  %14 = call noundef ptr @_ZN11ast_manager12mk_func_declEiijPK9parameterjPKP4sortS4_(ptr noundef nonnull align 8 dereferenceable(976) %11, i32 noundef 5, i32 noundef 23, i32 noundef 0, ptr noundef null, i32 noundef 2, ptr noundef %12, ptr noundef %13)
  call void @llvm.lifetime.end.p0(i64 16, ptr %4) #3
  call void @llvm.lifetime.end.p0(i64 8, ptr %3) #3
  ret ptr %14
}